target datalayout = "e-m:e-p270:32:32-p271:32:32-p272:64:64-i64:64-i128:128-f80:128-n8:16:32:64-S128"
target triple = "x86_64-pc-linux-gnu"

%struct._zval_struct = type { %union._zend_value, %union.anon, %union.anon.2 }
%union._zend_value = type { i64 }
%union.anon = type { i32 }
%union.anon.2 = type { i32 }
%struct._zend_array = type { %struct._zend_refcounted_h, %union.anon.4, i32, %union.anon.6, i32, i32, i32, i32, i64, ptr }
%struct._zend_refcounted_h = type { i32, %union.anon.3 }
%union.anon.3 = type { i32 }
%union.anon.4 = type { i32 }
%union.anon.6 = type { ptr }
%struct._sapi_globals_struct = type { ptr, %struct.sapi_request_info, %struct.sapi_headers_struct, i64, i8, i8, %struct.stat, ptr, ptr, ptr, i64, i32, i8, double, %struct._zend_array, %struct._zval_struct, %struct._zend_fcall_info_cache, %struct.sapi_request_parse_body_context }
%struct.sapi_request_info = type { ptr, ptr, ptr, i64, ptr, ptr, ptr, ptr, i8, i8, i8, ptr, ptr, ptr, ptr, ptr, ptr, ptr, i32, i32, ptr, i32 }
%struct.sapi_headers_struct = type { %struct._zend_llist, i32, i8, ptr, ptr }
%struct._zend_llist = type { ptr, ptr, i64, i64, ptr, i8, ptr }
%struct.stat = type { i64, i64, i64, i32, i32, i32, i32, i64, i64, i64, i64, %struct.timespec, %struct.timespec, %struct.timespec, [3 x i64] }
%struct.timespec = type { i64, i64 }
%struct._zend_fcall_info_cache = type { ptr, ptr, ptr, ptr, ptr }
%struct.sapi_request_parse_body_context = type { i8, [5 x %struct.anon.8] }
%struct.anon.8 = type { i8, i64 }

@sapi_globals = external global %struct._sapi_globals_struct, align 8

; Function Attrs: nounwind uwtable
define internal i64 @sapi_fcgi_ub_write(ptr noundef %0, i64 noundef %1) #0 {
  %3 = alloca i64, align 8
  %4 = alloca ptr, align 8
  %5 = alloca i64, align 8
  %6 = alloca ptr, align 8
  %7 = alloca i64, align 8
  %8 = alloca ptr, align 8
  %9 = alloca i32, align 4
  %10 = alloca i32, align 4
  %11 = alloca i32, align 4
  store ptr %0, ptr %4, align 8, !tbaa !63
  store i64 %1, ptr %5, align 8, !tbaa !64
  call void @llvm.lifetime.start.p0(i64 8, ptr %6) #20
  %12 = load ptr, ptr %4, align 8, !tbaa !63
  store ptr %12, ptr %6, align 8, !tbaa !63
  call void @llvm.lifetime.start.p0(i64 8, ptr %7) #20
  %13 = load i64, ptr %5, align 8, !tbaa !64
  store i64 %13, ptr %7, align 8, !tbaa !64
  call void @llvm.lifetime.start.p0(i64 8, ptr %8) #20
  %14 = load ptr, ptr @sapi_globals, align 8, !tbaa !46
  store ptr %14, ptr %8, align 8, !tbaa !61
  br label %15

15:                                               ; preds = %48, %2
  %16 = load i64, ptr %7, align 8, !tbaa !64
  %17 = icmp ugt i64 %16, 0
  br i1 %17, label %18, label %49

18:                                               ; preds = %15
  call void @llvm.lifetime.start.p0(i64 4, ptr %9) #20
  %19 = load i64, ptr %7, align 8, !tbaa !64
  %20 = icmp ugt i64 %19, 2147483647
  br i1 %20, label %21, label %22

21:                                               ; preds = %18
  br label %25

22:                                               ; preds = %18
  %23 = load i64, ptr %7, align 8, !tbaa !64
  %24 = trunc i64 %23 to i32
  br label %25

25:                                               ; preds = %22, %21
  %26 = phi i32 [ 2147483647, %21 ], [ %24, %22 ]
  store i32 %26, ptr %9, align 4, !tbaa !73
  call void @llvm.lifetime.start.p0(i64 4, ptr %10) #20
  %27 = load ptr, ptr %8, align 8, !tbaa !61
  %28 = load ptr, ptr %6, align 8, !tbaa !63
  %29 = load i32, ptr %9, align 4, !tbaa !73
  %30 = call i32 @fcgi_write(ptr noundef %27, i32 noundef 6, ptr noundef %28, i32 noundef %29)
  store i32 %30, ptr %10, align 4, !tbaa !73
  %31 = load i32, ptr %10, align 4, !tbaa !73
  %32 = icmp sle i32 %31, 0
  br i1 %32, label %33, label %37

33:                                               ; preds = %25
  call void @php_handle_aborted_connection()
  %34 = load i64, ptr %5, align 8, !tbaa !64
  %35 = load i64, ptr %7, align 8, !tbaa !64
  %36 = sub i64 %34, %35
  store i64 %36, ptr %3, align 8
  store i32 1, ptr %11, align 4
  br label %46

37:                                               ; preds = %25
  %38 = load i32, ptr %10, align 4, !tbaa !73
  %39 = load ptr, ptr %6, align 8, !tbaa !63
  %40 = sext i32 %38 to i64
  %41 = getelementptr inbounds i8, ptr %39, i64 %40
  store ptr %41, ptr %6, align 8, !tbaa !63
  %42 = load i32, ptr %10, align 4, !tbaa !73
  %43 = sext i32 %42 to i64
  %44 = load i64, ptr %7, align 8, !tbaa !64
  %45 = sub i64 %44, %43
  store i64 %45, ptr %7, align 8, !tbaa !64
  store i32 0, ptr %11, align 4
  br label %46

46:                                               ; preds = %37, %33
  call void @llvm.lifetime.end.p0(i64 4, ptr %10) #20
  call void @llvm.lifetime.end.p0(i64 4, ptr %9) #20
  %47 = load i32, ptr %11, align 4
  switch i32 %47, label %51 [
    i32 0, label %48
  ]

48:                                               ; preds = %46
  br label %15

49:                                               ; preds = %15
  %50 = load i64, ptr %5, align 8, !tbaa !64
  store i64 %50, ptr %3, align 8
  store i32 1, ptr %11, align 4
  br label %51

51:                                               ; preds = %49, %46
  call void @llvm.lifetime.end.p0(i64 8, ptr %8) #20
  call void @llvm.lifetime.end.p0(i64 8, ptr %7) #20
  call void @llvm.lifetime.end.p0(i64 8, ptr %6) #20
  %52 = load i64, ptr %3, align 8
  ret i64 %52
}