; Function Attrs: nounwind uwtable
define internal i64 @sapi_fcgi_ub_write(ptr noundef %0, i64 noundef %1) #0 {
  %3 = load ptr, ptr @sapi_globals, align 8, !tbaa !44
  %.not27 = icmp eq i64 %1, 0
  br i1 %.not27, label %.loopexit, label %.lr.ph

.lr.ph:                                           ; preds = %2, %9
  %.01829 = phi ptr [ %11, %9 ], [ %0, %2 ]
  %.02028 = phi i64 [ %12, %9 ], [ %1, %2 ]
  %4 = tail call i64 @llvm.umin.i64(i64 %.02028, i64 2147483647)
  %5 = trunc nuw nsw i64 %4 to i32
  %6 = tail call i32 @fcgi_write(ptr noundef %3, i32 noundef 6, ptr noundef %.01829, i32 noundef %5) #29
  %7 = icmp sgt i32 %6, 0
  br i1 %7, label %9, label %.thread

.thread:                                          ; preds = %.lr.ph
  tail call void @php_handle_aborted_connection() #29
  %8 = sub i64 %1, %.02028
  br label %.loopexit

9:                                                ; preds = %.lr.ph
  %10 = zext nneg i32 %6 to i64
  %11 = getelementptr inbounds nuw i8, ptr %.01829, i64 %10
  %12 = sub i64 %.02028, %10
  %.not = icmp eq i64 %12, 0
  br i1 %.not, label %.loopexit, label %.lr.ph

.loopexit:                                        ; preds = %9, %2, %.thread
  %.2 = phi i64 [ %8, %.thread ], [ 0, %2 ], [ %1, %9 ]
  ret i64 %.2
}